(ccopy_reg
_reconstructor
p0
(cdoc_topic_coh.evaluations.experiment
IdList
p1
c__builtin__
list
p2
(lp3
((S'uspolM10'
p4
I40
tp5
S'theme_mix'
p6
tp7
a((S'uspolM11'
p8
I8
tp9
S'theme_noise'
p10
tp11
a((g8
I47
tp12
S'theme'
p13
tp14
a((g4
I27
tp15
g13
tp16
a((g4
I69
tp17
g13
tp18
a((g8
I95
tp19
S'noise'
p20
tp21
a((S'uspolM0'
p22
I34
tp23
g6
tp24
a((g4
I50
tp25
g13
tp26
a((S'uspolM1'
p27
I4
tp28
g10
tp29
a((g4
I21
tp30
g13
tp31
a((g8
I11
tp32
g13
tp33
a((g8
I23
tp34
g13
tp35
a((g4
I62
tp36
g13
tp37
a((S'uspolM2'
p38
I29
tp39
g6
tp40
a((g38
I18
tp41
g13
tp42
a((g22
I27
tp43
g10
tp44
a((g8
I38
tp45
g13
tp46
a((g4
I16
tp47
g13
tp48
a((g8
I52
tp49
g13
tp50
a((g4
I19
tp51
g13
tp52
a((g22
I9
tp53
g13
tp54
a((g22
I17
tp55
g13
tp56
a((g4
I51
tp57
g13
tp58
a((g4
I34
tp59
g6
tp60
a((g8
I90
tp61
g13
tp62
a((g22
I36
tp63
g10
tp64
a((g8
I96
tp65
g6
tp66
a((g8
I77
tp67
g13
tp68
a((g4
I63
tp69
g13
tp70
a((g4
I30
tp71
g13
tp72
a((g8
I46
tp73
g13
tp74
a((g38
I7
tp75
g20
tp76
a((g4
I95
tp77
g6
tp78
a((g22
I19
tp79
g6
tp80
a((g22
I26
tp81
g6
tp82
a((g38
I0
tp83
g13
tp84
a((g8
I58
tp85
g13
tp86
a((g4
I87
tp87
g20
tp88
a((g22
I29
tp89
g6
tp90
a((g4
I36
tp91
g13
tp92
a((g27
I15
tp93
g6
tp94
a((g38
I40
tp95
g6
tp96
a((g4
I53
tp97
g6
tp98
a((g27
I8
tp99
g10
tp100
a((g27
I17
tp101
g13
tp102
a((g4
I92
tp103
g13
tp104
a((g27
I6
tp105
g10
tp106
a((g4
I15
tp107
g13
tp108
a((g27
I13
tp109
g13
tp110
a((g8
I29
tp111
g10
tp112
a((g8
I78
tp113
g6
tp114
a((g38
I49
tp115
g13
tp116
a((g8
I48
tp117
g10
tp118
a((g8
I33
tp119
g13
tp120
a((g27
I5
tp121
g10
tp122
a((g22
I24
tp123
g13
tp124
a((g8
I73
tp125
g20
tp126
a((g27
I43
tp127
S'theme_mix_noise'
p128
tp129
a((g27
I9
tp130
g128
tp131
a((g27
I3
tp132
g20
tp133
a((g8
I19
tp134
g13
tp135
a((g27
I21
tp136
g10
tp137
a((g22
I37
tp138
g13
tp139
a((g4
I5
tp140
g20
tp141
a((g27
I1
tp142
g13
tp143
a((g8
I94
tp144
g10
tp145
a((g4
I28
tp146
g20
tp147
a((g38
I41
tp148
g13
tp149
a((g4
I49
tp150
g13
tp151
a((g38
I33
tp152
g6
tp153
a((g22
I5
tp154
g20
tp155
a((g4
I13
tp156
g13
tp157
a((g22
I39
tp158
g13
tp159
a((g27
I41
tp160
g13
tp161
a((g38
I24
tp162
g13
tp163
a((g22
I43
tp164
g13
tp165
a((g38
I43
tp166
g6
tp167
a((g8
I81
tp168
g13
tp169
a((g8
I16
tp170
g13
tp171
a((g8
I55
tp172
g13
tp173
a((g22
I31
tp174
g13
tp175
a((g8
I61
tp176
g20
tp177
a((g27
I47
tp178
g13
tp179
a((g4
I61
tp180
g13
tp181
a((g8
I59
tp182
g6
tp183
a((g8
I30
tp184
g13
tp185
a((g38
I37
tp186
g6
tp187
a((g8
I21
tp188
g10
tp189
a((g4
I65
tp190
g20
tp191
a((g22
I7
tp192
g128
tp193
a((g4
I22
tp194
g13
tp195
a((g4
I42
tp196
g13
tp197
a((g27
I30
tp198
g13
tp199
a((g27
I48
tp200
g10
tp201
a((g27
I11
tp202
g13
tp203
a((g8
I44
tp204
g6
tp205
a((g4
I11
tp206
g13
tp207
a((g22
I6
tp208
g6
tp209
a((g22
I18
tp210
g20
tp211
a((g38
I27
tp212
g13
tp213
a((g8
I89
tp214
g10
tp215
a((g4
I80
tp216
g13
tp217
a((g38
I2
tp218
g10
tp219
a((g8
I14
tp220
g13
tp221
a((g4
I66
tp222
g6
tp223
a((g38
I25
tp224
g10
tp225
a((g4
I81
tp226
g13
tp227
a((g4
I70
tp228
g20
tp229
a((g22
I40
tp230
g13
tp231
a((g27
I40
tp232
g128
tp233
a((g38
I3
tp234
g13
tp235
a((g4
I25
tp236
g13
tp237
a((g4
I97
tp238
g13
tp239
a((g8
I87
tp240
g13
tp241
a((g22
I33
tp242
g6
tp243
a((g8
I93
tp244
g10
tp245
a((g27
I46
tp246
g10
tp247
a((g8
I66
tp248
g20
tp249
a((g22
I10
tp250
g20
tp251
a((g4
I67
tp252
g13
tp253
atp254
Rp255
(dp256
S'id'
p257
S'dev2'
p258
sbg0
(g1
g2
(lp259
((g38
I9
tp260
g13
tp261
a((g4
I93
tp262
g6
tp263
a((g8
I72
tp264
g13
tp265
a((g4
I33
tp266
g20
tp267
a((g4
I78
tp268
g20
tp269
a((g8
I43
tp270
g10
tp271
a((g22
I3
tp272
g128
tp273
a((g4
I96
tp274
g13
tp275
a((g4
I10
tp276
g13
tp277
a((g4
I8
tp278
g13
tp279
a((g4
I74
tp280
g6
tp281
a((g27
I32
tp282
g10
tp283
a((g38
I5
tp284
g13
tp285
a((g8
I4
tp286
g20
tp287
a((g22
I8
tp288
g10
tp289
a((g4
I38
tp290
g13
tp291
a((g38
I38
tp292
g6
tp293
a((g38
I35
tp294
g6
tp295
a((g27
I44
tp296
g20
tp297
a((g4
I29
tp298
g6
tp299
a((g38
I36
tp300
g6
tp301
a((g4
I17
tp302
g13
tp303
a((g38
I20
tp304
g6
tp305
a((g22
I2
tp306
g20
tp307
a((g4
I4
tp308
g13
tp309
a((g27
I20
tp310
g13
tp311
a((g8
I2
tp312
g13
tp313
a((g8
I7
tp314
g13
tp315
a((g8
I17
tp316
g6
tp317
a((g27
I39
tp318
g13
tp319
a((g38
I6
tp320
g6
tp321
a((g38
I47
tp322
g13
tp323
a((g8
I75
tp324
g6
tp325
a((g27
I27
tp326
g13
tp327
a((g4
I60
tp328
g13
tp329
a((g38
I30
tp330
g20
tp331
a((g8
I63
tp332
g13
tp333
a((g8
I36
tp334
g10
tp335
a((g4
I72
tp336
g13
tp337
a((g22
I38
tp338
g20
tp339
a((g38
I14
tp340
g13
tp341
a((g27
I18
tp342
g13
tp343
a((g8
I86
tp344
g13
tp345
a((g4
I43
tp346
g6
tp347
a((g27
I31
tp348
g10
tp349
a((g4
I45
tp350
g13
tp351
a((g27
I25
tp352
g13
tp353
a((g4
I1
tp354
g6
tp355
a((g8
I6
tp356
g10
tp357
a((g8
I62
tp358
g13
tp359
a((g8
I42
tp360
g10
tp361
a((g27
I35
tp362
g6
tp363
a((g4
I94
tp364
g128
tp365
a((g8
I28
tp366
g13
tp367
a((g22
I49
tp368
g13
tp369
a((g38
I11
tp370
g13
tp371
a((g8
I57
tp372
g13
tp373
a((g8
I97
tp374
g20
tp375
a((g4
I88
tp376
g6
tp377
a((g8
I27
tp378
g13
tp379
a((g8
I98
tp380
g13
tp381
a((g22
I46
tp382
g20
tp383
a((g27
I33
tp384
g10
tp385
a((g4
I56
tp386
g6
tp387
a((g4
I85
tp388
g13
tp389
a((g8
I35
tp390
g6
tp391
a((g4
I46
tp392
g6
tp393
a((g27
I45
tp394
g20
tp395
a((g27
I23
tp396
g10
tp397
a((g8
I31
tp398
g13
tp399
a((g22
I14
tp400
g6
tp401
a((g4
I52
tp402
g13
tp403
a((g8
I15
tp404
g20
tp405
a((g4
I90
tp406
g13
tp407
a((g8
I74
tp408
g20
tp409
a((g4
I31
tp410
g13
tp411
a((g4
I76
tp412
g13
tp413
a((g8
I85
tp414
g13
tp415
a((g4
I83
tp416
g13
tp417
a((g4
I84
tp418
g20
tp419
a((g27
I49
tp420
g13
tp421
a((g4
I54
tp422
g13
tp423
a((g27
I28
tp424
g13
tp425
a((g4
I44
tp426
g20
tp427
a((g4
I68
tp428
g13
tp429
a((g38
I48
tp430
g13
tp431
a((g8
I50
tp432
g13
tp433
a((g8
I84
tp434
g13
tp435
a((g8
I60
tp436
g20
tp437
a((g27
I0
tp438
g13
tp439
a((g4
I64
tp440
g13
tp441
a((g4
I98
tp442
g13
tp443
a((g4
I77
tp444
g13
tp445
a((g4
I48
tp446
g6
tp447
a((g22
I4
tp448
g13
tp449
a((g8
I54
tp450
g13
tp451
a((g22
I20
tp452
g6
tp453
a((g38
I28
tp454
g20
tp455
a((g8
I32
tp456
g13
tp457
a((g8
I9
tp458
g20
tp459
a((g27
I22
tp460
g13
tp461
a((g4
I91
tp462
g13
tp463
a((g4
I18
tp464
g20
tp465
a((g22
I48
tp466
g20
tp467
a((g8
I69
tp468
g13
tp469
a((g8
I22
tp470
g13
tp471
a((g8
I18
tp472
g6
tp473
a((g4
I6
tp474
g13
tp475
a((g4
I99
tp476
g13
tp477
a((g8
I49
tp478
g13
tp479
a((g38
I34
tp480
g13
tp481
a((g4
I59
tp482
g13
tp483
a((g4
I20
tp484
g13
tp485
a((g27
I42
tp486
g10
tp487
a((g38
I15
tp488
g10
tp489
a((g27
I7
tp490
g13
tp491
a((g27
I38
tp492
g13
tp493
a((g22
I22
tp494
g13
tp495
a((g22
I1
tp496
g128
tp497
a((g22
I16
tp498
g10
tp499
a((g8
I41
tp500
g13
tp501
a((g8
I26
tp502
g20
tp503
a((g8
I92
tp504
g20
tp505
a((g8
I12
tp506
g10
tp507
a((g8
I40
tp508
g20
tp509
a((g38
I45
tp510
g6
tp511
a((g8
I56
tp512
g10
tp513
a((g4
I32
tp514
g6
tp515
a((g4
I79
tp516
g13
tp517
a((g4
I39
tp518
g13
tp519
a((g38
I10
tp520
g13
tp521
a((g4
I2
tp522
g10
tp523
a((g38
I21
tp524
g13
tp525
a((g4
I3
tp526
g13
tp527
a((g4
I47
tp528
g6
tp529
a((g8
I68
tp530
g128
tp531
a((g38
I12
tp532
g13
tp533
a((g4
I0
tp534
g6
tp535
a((g8
I70
tp536
g13
tp537
a((g22
I45
tp538
g6
tp539
a((g4
I9
tp540
g13
tp541
a((g38
I22
tp542
g20
tp543
a((g22
I42
tp544
g10
tp545
a((g8
I71
tp546
g20
tp547
a((g22
I0
tp548
g128
tp549
a((g8
I37
tp550
g13
tp551
a((g22
I47
tp552
g13
tp553
a((g22
I15
tp554
g13
tp555
a((g8
I64
tp556
g128
tp557
a((g8
I3
tp558
g10
tp559
a((g38
I1
tp560
g13
tp561
a((g4
I55
tp562
g13
tp563
a((g27
I34
tp564
g10
tp565
a((g38
I16
tp566
g6
tp567
a((g4
I37
tp568
g13
tp569
a((g22
I12
tp570
g13
tp571
a((g4
I82
tp572
g13
tp573
a((g8
I91
tp574
g13
tp575
a((g27
I36
tp576
g10
tp577
a((g22
I21
tp578
g13
tp579
a((g8
I13
tp580
g13
tp581
a((g8
I0
tp582
g13
tp583
a((g8
I83
tp584
g6
tp585
a((g38
I44
tp586
g6
tp587
a((g4
I7
tp588
g6
tp589
a((g27
I37
tp590
g10
tp591
a((g38
I13
tp592
g128
tp593
a((g27
I12
tp594
g13
tp595
a((g27
I19
tp596
g13
tp597
a((g22
I44
tp598
g13
tp599
a((g4
I24
tp600
g13
tp601
a((g38
I26
tp602
g13
tp603
a((g4
I73
tp604
g13
tp605
a((g4
I71
tp606
g20
tp607
a((g4
I23
tp608
g10
tp609
a((g8
I53
tp610
g20
tp611
a((g38
I4
tp612
g13
tp613
a((g27
I29
tp614
g13
tp615
a((g4
I26
tp616
g6
tp617
a((g4
I89
tp618
g13
tp619
a((g8
I99
tp620
g20
tp621
a((g27
I16
tp622
g6
tp623
a((g22
I35
tp624
g13
tp625
a((g8
I82
tp626
g13
tp627
a((g22
I41
tp628
g10
tp629
a((g4
I41
tp630
g6
tp631
a((g8
I1
tp632
g13
tp633
a((g8
I25
tp634
g13
tp635
a((g4
I12
tp636
g13
tp637
a((g27
I2
tp638
g13
tp639
a((g22
I30
tp640
g128
tp641
a((g8
I76
tp642
g6
tp643
a((g38
I17
tp644
g6
tp645
a((g22
I23
tp646
g13
tp647
a((g22
I28
tp648
g13
tp649
a((g8
I79
tp650
g10
tp651
a((g4
I35
tp652
g13
tp653
a((g22
I25
tp654
g10
tp655
a((g8
I10
tp656
g10
tp657
a((g4
I58
tp658
g13
tp659
a((g8
I39
tp660
g10
tp661
a((g8
I45
tp662
g13
tp663
a((g4
I86
tp664
g13
tp665
a((g38
I32
tp666
g6
tp667
a((g38
I42
tp668
g128
tp669
a((g8
I24
tp670
g10
tp671
a((g4
I75
tp672
g13
tp673
a((g38
I23
tp674
g10
tp675
a((g8
I88
tp676
g13
tp677
a((g38
I8
tp678
g13
tp679
a((g8
I34
tp680
g10
tp681
a((g27
I14
tp682
g13
tp683
a((g22
I13
tp684
g13
tp685
a((g8
I67
tp686
g10
tp687
a((g4
I57
tp688
g13
tp689
a((g27
I26
tp690
g13
tp691
a((g8
I65
tp692
g13
tp693
a((g4
I14
tp694
g13
tp695
a((g8
I80
tp696
g6
tp697
a((g38
I46
tp698
g6
tp699
a((g8
I51
tp700
g10
tp701
a((g27
I10
tp702
g10
tp703
a((g22
I11
tp704
g13
tp705
a((g8
I20
tp706
g6
tp707
a((g8
I5
tp708
g10
tp709
a((g38
I39
tp710
g6
tp711
a((g38
I19
tp712
g10
tp713
a((g38
I31
tp714
g13
tp715
a((g22
I32
tp716
g13
tp717
a((g27
I24
tp718
g13
tp719
atp720
Rp721
(dp722
g257
S'test2'
p723
sbtp724
.