(ccopy_reg
_reconstructor
p0
(cdoc_topic_coh.evaluations.experiment
IdList
p1
c__builtin__
list
p2
(lp3
((S'uspolM2'
p4
I2
tp5
S'theme_noise'
p6
tp7
a((S'uspolM0'
p8
I8
tp9
g6
tp10
a((S'uspolM11'
p11
I98
tp12
S'theme'
p13
tp14
a((S'uspolM1'
p15
I29
tp16
g13
tp17
a((g11
I73
tp18
S'noise'
p19
tp20
a((g8
I1
tp21
S'theme_mix_noise'
p22
tp23
a((g4
I37
tp24
S'theme_mix'
p25
tp26
a((g8
I34
tp27
g25
tp28
a((g4
I46
tp29
g25
tp30
a((g11
I17
tp31
g25
tp32
a((g8
I2
tp33
g19
tp34
a((g11
I68
tp35
g22
tp36
a((g4
I15
tp37
g6
tp38
a((g11
I71
tp39
g19
tp40
a((g8
I35
tp41
g13
tp42
a((g11
I77
tp43
g13
tp44
a((S'uspolM10'
p45
I19
tp46
g13
tp47
a((g11
I55
tp48
g13
tp49
a((g45
I45
tp50
g13
tp51
a((g4
I48
tp52
g13
tp53
a((g4
I4
tp54
g13
tp55
a((g8
I7
tp56
g22
tp57
a((g15
I4
tp58
g6
tp59
a((g4
I26
tp60
g13
tp61
a((g45
I36
tp62
g13
tp63
a((g45
I14
tp64
g13
tp65
a((g45
I74
tp66
g25
tp67
a((g11
I28
tp68
g13
tp69
a((g15
I1
tp70
g13
tp71
a((g45
I43
tp72
g25
tp73
a((g45
I77
tp74
g13
tp75
a((g11
I90
tp76
g13
tp77
a((g15
I42
tp78
g6
tp79
a((g15
I20
tp80
g13
tp81
a((g45
I80
tp82
g13
tp83
a((g11
I29
tp84
g6
tp85
a((g11
I4
tp86
g19
tp87
a((g4
I25
tp88
g6
tp89
a((g15
I30
tp90
g13
tp91
a((g45
I4
tp92
g13
tp93
a((g45
I15
tp94
g13
tp95
a((g11
I20
tp96
g25
tp97
a((g11
I35
tp98
g25
tp99
a((g15
I35
tp100
g25
tp101
a((g4
I8
tp102
g13
tp103
a((g4
I24
tp104
g13
tp105
a((g11
I75
tp106
g25
tp107
a((g11
I56
tp108
g6
tp109
a((g15
I6
tp110
g6
tp111
a((g45
I24
tp112
g13
tp113
a((g11
I80
tp114
g25
tp115
a((g11
I9
tp116
g19
tp117
a((g4
I1
tp118
g13
tp119
a((g45
I66
tp120
g25
tp121
a((g15
I49
tp122
g13
tp123
a((g8
I43
tp124
g13
tp125
a((g11
I61
tp126
g19
tp127
a((g15
I33
tp128
g6
tp129
a((g8
I12
tp130
g13
tp131
a((g45
I85
tp132
g13
tp133
a((g8
I25
tp134
g6
tp135
a((g8
I39
tp136
g13
tp137
a((g45
I9
tp138
g13
tp139
a((g11
I72
tp140
g13
tp141
a((g15
I13
tp142
g13
tp143
a((g4
I35
tp144
g25
tp145
a((g15
I21
tp146
g6
tp147
a((g8
I21
tp148
g13
tp149
a((g45
I65
tp150
g19
tp151
a((g11
I37
tp152
g13
tp153
a((g45
I39
tp154
g13
tp155
a((g15
I14
tp156
g13
tp157
a((g45
I0
tp158
g25
tp159
a((g11
I52
tp160
g13
tp161
a((g8
I11
tp162
g13
tp163
a((g8
I18
tp164
g19
tp165
a((g8
I13
tp166
g13
tp167
a((g11
I60
tp168
g19
tp169
a((g8
I15
tp170
g13
tp171
a((g8
I22
tp172
g13
tp173
atp174
Rp175
(dp176
S'id'
p177
S'dev'
p178
sbg0
(g1
g2
(lp179
((g11
I25
tp180
g13
tp181
a((g45
I59
tp182
g13
tp183
a((g45
I61
tp184
g13
tp185
a((g4
I32
tp186
g25
tp187
a((g11
I99
tp188
g19
tp189
a((g8
I26
tp190
g25
tp191
a((g45
I52
tp192
g13
tp193
a((g4
I13
tp194
g22
tp195
a((g8
I16
tp196
g6
tp197
a((g11
I3
tp198
g6
tp199
a((g45
I70
tp200
g19
tp201
a((g15
I41
tp202
g13
tp203
a((g11
I54
tp204
g13
tp205
a((g11
I26
tp206
g19
tp207
a((g45
I54
tp208
g13
tp209
a((g8
I29
tp210
g25
tp211
a((g11
I69
tp212
g13
tp213
a((g8
I20
tp214
g25
tp215
a((g15
I12
tp216
g13
tp217
a((g11
I67
tp218
g6
tp219
a((g45
I88
tp220
g25
tp221
a((g4
I47
tp222
g13
tp223
a((g4
I42
tp224
g22
tp225
a((g45
I64
tp226
g13
tp227
a((g11
I47
tp228
g13
tp229
a((g4
I3
tp230
g13
tp231
a((g45
I58
tp232
g13
tp233
a((g8
I10
tp234
g19
tp235
a((g15
I43
tp236
g22
tp237
a((g11
I36
tp238
g6
tp239
a((g45
I90
tp240
g13
tp241
a((g15
I36
tp242
g6
tp243
a((g11
I38
tp244
g13
tp245
a((g4
I0
tp246
g13
tp247
a((g45
I40
tp248
g25
tp249
a((g45
I46
tp250
g25
tp251
a((g4
I11
tp252
g13
tp253
a((g45
I44
tp254
g19
tp255
a((g11
I16
tp256
g13
tp257
a((g4
I27
tp258
g13
tp259
a((g45
I22
tp260
g13
tp261
a((g11
I76
tp262
g25
tp263
a((g11
I27
tp264
g13
tp265
a((g15
I28
tp266
g13
tp267
a((g4
I43
tp268
g25
tp269
a((g45
I89
tp270
g13
tp271
a((g15
I7
tp272
g13
tp273
a((g45
I2
tp274
g6
tp275
a((g15
I46
tp276
g6
tp277
a((g45
I41
tp278
g25
tp279
a((g11
I51
tp280
g6
tp281
a((g45
I92
tp282
g13
tp283
a((g15
I39
tp284
g13
tp285
a((g45
I29
tp286
g25
tp287
a((g45
I37
tp288
g13
tp289
a((g11
I78
tp290
g25
tp291
a((g45
I97
tp292
g13
tp293
a((g4
I19
tp294
g6
tp295
a((g8
I24
tp296
g13
tp297
a((g4
I22
tp298
g19
tp299
a((g45
I10
tp300
g13
tp301
a((g45
I93
tp302
g25
tp303
a((g45
I79
tp304
g13
tp305
a((g15
I23
tp306
g6
tp307
a((g11
I15
tp308
g19
tp309
a((g45
I5
tp310
g19
tp311
a((g4
I21
tp312
g13
tp313
a((g11
I12
tp314
g6
tp315
a((g15
I22
tp316
g13
tp317
a((g45
I73
tp318
g13
tp319
a((g45
I68
tp320
g13
tp321
a((g45
I16
tp322
g13
tp323
a((g8
I38
tp324
g19
tp325
a((g15
I38
tp326
g13
tp327
a((g45
I42
tp328
g13
tp329
a((g45
I6
tp330
g13
tp331
a((g4
I10
tp332
g13
tp333
a((g4
I45
tp334
g25
tp335
a((g11
I33
tp336
g13
tp337
a((g4
I39
tp338
g25
tp339
a((g4
I28
tp340
g19
tp341
a((g11
I81
tp342
g13
tp343
a((g8
I6
tp344
g25
tp345
a((g4
I29
tp346
g25
tp347
a((g15
I27
tp348
g13
tp349
a((g45
I55
tp350
g13
tp351
a((g11
I11
tp352
g13
tp353
a((g8
I14
tp354
g25
tp355
a((g45
I33
tp356
g19
tp357
a((g8
I49
tp358
g13
tp359
a((g45
I27
tp360
g13
tp361
a((g11
I46
tp362
g13
tp363
a((g11
I19
tp364
g13
tp365
a((g11
I63
tp366
g13
tp367
a((g45
I38
tp368
g13
tp369
a((g11
I48
tp370
g6
tp371
a((g45
I95
tp372
g25
tp373
a((g8
I0
tp374
g22
tp375
a((g11
I64
tp376
g22
tp377
a((g45
I83
tp378
g13
tp379
a((g4
I5
tp380
g13
tp381
a((g11
I93
tp382
g6
tp383
a((g45
I57
tp384
g13
tp385
a((g45
I82
tp386
g13
tp387
a((g11
I10
tp388
g6
tp389
a((g8
I5
tp390
g19
tp391
a((g11
I24
tp392
g6
tp393
a((g15
I17
tp394
g13
tp395
a((g45
I7
tp396
g25
tp397
a((g4
I17
tp398
g25
tp399
a((g4
I12
tp400
g13
tp401
a((g4
I6
tp402
g25
tp403
a((g11
I40
tp404
g19
tp405
a((g15
I9
tp406
g22
tp407
a((g8
I9
tp408
g13
tp409
a((g45
I99
tp410
g13
tp411
a((g11
I41
tp412
g13
tp413
a((g15
I40
tp414
g22
tp415
a((g45
I94
tp416
g22
tp417
a((g4
I16
tp418
g25
tp419
a((g15
I15
tp420
g25
tp421
a((g8
I46
tp422
g19
tp423
a((g11
I34
tp424
g6
tp425
a((g8
I31
tp426
g13
tp427
a((g45
I71
tp428
g19
tp429
a((g8
I32
tp430
g13
tp431
a((g8
I17
tp432
g13
tp433
a((g45
I86
tp434
g13
tp435
a((g15
I18
tp436
g13
tp437
a((g11
I53
tp438
g19
tp439
a((g45
I72
tp440
g13
tp441
a((g45
I20
tp442
g13
tp443
a((g11
I65
tp444
g13
tp445
a((g45
I87
tp446
g19
tp447
a((g4
I38
tp448
g25
tp449
a((g11
I22
tp450
g13
tp451
a((g11
I50
tp452
g13
tp453
a((g8
I40
tp454
g13
tp455
a((g45
I1
tp456
g25
tp457
a((g15
I8
tp458
g6
tp459
a((g45
I13
tp460
g13
tp461
a((g45
I62
tp462
g13
tp463
a((g11
I7
tp464
g13
tp465
a((g45
I78
tp466
g19
tp467
a((g11
I13
tp468
g13
tp469
a((g11
I83
tp470
g25
tp471
a((g11
I97
tp472
g19
tp473
a((g15
I45
tp474
g19
tp475
a((g8
I41
tp476
g6
tp477
a((g4
I49
tp478
g13
tp479
a((g15
I0
tp480
g13
tp481
a((g45
I96
tp482
g13
tp483
a((g45
I31
tp484
g13
tp485
a((g11
I94
tp486
g6
tp487
a((g8
I37
tp488
g13
tp489
a((g45
I53
tp490
g25
tp491
a((g45
I21
tp492
g13
tp493
a((g11
I88
tp494
g13
tp495
a((g4
I41
tp496
g13
tp497
a((g11
I0
tp498
g13
tp499
a((g11
I87
tp500
g13
tp501
a((g11
I91
tp502
g13
tp503
a((g4
I36
tp504
g25
tp505
a((g45
I3
tp506
g13
tp507
a((g45
I23
tp508
g6
tp509
a((g45
I48
tp510
g25
tp511
a((g4
I33
tp512
g25
tp513
a((g11
I30
tp514
g13
tp515
a((g11
I21
tp516
g6
tp517
a((g11
I45
tp518
g13
tp519
a((g11
I32
tp520
g13
tp521
a((g4
I20
tp522
g25
tp523
a((g15
I11
tp524
g13
tp525
a((g45
I8
tp526
g13
tp527
a((g8
I33
tp528
g25
tp529
a((g4
I7
tp530
g19
tp531
a((g45
I11
tp532
g13
tp533
a((g11
I96
tp534
g25
tp535
a((g8
I48
tp536
g19
tp537
a((g45
I51
tp538
g13
tp539
a((g15
I32
tp540
g6
tp541
a((g11
I1
tp542
g13
tp543
a((g45
I32
tp544
g25
tp545
a((g45
I17
tp546
g13
tp547
a((g15
I3
tp548
g19
tp549
a((g45
I69
tp550
g13
tp551
a((g11
I82
tp552
g13
tp553
a((g4
I31
tp554
g13
tp555
a((g8
I28
tp556
g13
tp557
a((g4
I18
tp558
g13
tp559
a((g15
I10
tp560
g6
tp561
a((g4
I23
tp562
g6
tp563
a((g45
I35
tp564
g13
tp565
a((g15
I25
tp566
g13
tp567
a((g45
I49
tp568
g13
tp569
a((g11
I42
tp570
g6
tp571
a((g45
I60
tp572
g13
tp573
a((g11
I84
tp574
g13
tp575
a((g8
I4
tp576
g13
tp577
a((g11
I79
tp578
g6
tp579
a((g11
I8
tp580
g6
tp581
a((g45
I75
tp582
g13
tp583
a((g45
I84
tp584
g19
tp585
a((g45
I98
tp586
g13
tp587
a((g45
I28
tp588
g19
tp589
a((g45
I81
tp590
g13
tp591
a((g11
I2
tp592
g13
tp593
a((g8
I19
tp594
g25
tp595
a((g45
I50
tp596
g13
tp597
a((g8
I47
tp598
g13
tp599
a((g11
I57
tp600
g13
tp601
a((g45
I18
tp602
g19
tp603
a((g15
I5
tp604
g6
tp605
a((g45
I67
tp606
g13
tp607
a((g45
I47
tp608
g25
tp609
a((g11
I66
tp610
g19
tp611
a((g11
I31
tp612
g13
tp613
a((g15
I24
tp614
g13
tp615
a((g8
I44
tp616
g13
tp617
a((g8
I30
tp618
g22
tp619
a((g11
I74
tp620
g19
tp621
a((g11
I86
tp622
g13
tp623
a((g11
I43
tp624
g6
tp625
a((g11
I92
tp626
g19
tp627
a((g11
I95
tp628
g19
tp629
a((g45
I34
tp630
g25
tp631
a((g45
I63
tp632
g13
tp633
a((g4
I40
tp634
g25
tp635
a((g45
I25
tp636
g13
tp637
a((g4
I44
tp638
g25
tp639
a((g4
I34
tp640
g13
tp641
a((g8
I42
tp642
g6
tp643
a((g11
I70
tp644
g13
tp645
a((g8
I36
tp646
g6
tp647
a((g11
I18
tp648
g25
tp649
a((g45
I56
tp650
g25
tp651
a((g15
I48
tp652
g6
tp653
a((g45
I91
tp654
g13
tp655
a((g4
I9
tp656
g13
tp657
a((g15
I2
tp658
g13
tp659
a((g15
I34
tp660
g6
tp661
a((g11
I49
tp662
g13
tp663
a((g11
I5
tp664
g6
tp665
a((g15
I26
tp666
g13
tp667
a((g15
I16
tp668
g25
tp669
a((g8
I23
tp670
g13
tp671
a((g15
I37
tp672
g6
tp673
a((g11
I58
tp674
g13
tp675
a((g15
I47
tp676
g13
tp677
a((g11
I39
tp678
g6
tp679
a((g15
I19
tp680
g13
tp681
a((g45
I76
tp682
g13
tp683
a((g11
I6
tp684
g6
tp685
a((g11
I89
tp686
g6
tp687
a((g4
I14
tp688
g13
tp689
a((g15
I44
tp690
g19
tp691
a((g11
I44
tp692
g25
tp693
a((g8
I3
tp694
g22
tp695
a((g45
I26
tp696
g25
tp697
a((g11
I85
tp698
g13
tp699
a((g8
I45
tp700
g25
tp701
a((g45
I30
tp702
g13
tp703
a((g45
I12
tp704
g13
tp705
a((g8
I27
tp706
g6
tp707
a((g4
I30
tp708
g19
tp709
a((g11
I59
tp710
g25
tp711
a((g11
I23
tp712
g13
tp713
a((g11
I62
tp714
g13
tp715
a((g15
I31
tp716
g6
tp717
a((g11
I14
tp718
g13
tp719
atp720
Rp721
(dp722
g177
S'test'
p723
sbtp724
.