(ccopy_reg
_reconstructor
p0
(cdoc_topic_coh.evaluations.experiment
IdList
p1
c__builtin__
list
p2
(lp3
((S'uspolM10'
p4
I12
tp5
S'theme'
p6
tp7
a((g4
I66
tp8
S'theme_mix'
p9
tp10
a((g4
I54
tp11
g6
tp12
a((g4
I25
tp13
g6
tp14
a((S'uspolM1'
p15
I42
tp16
S'theme_noise'
p17
tp18
a((g15
I34
tp19
g17
tp20
a((g15
I37
tp21
g17
tp22
a((S'uspolM0'
p23
I43
tp24
g6
tp25
a((S'uspolM2'
p26
I10
tp27
g6
tp28
a((g4
I63
tp29
g6
tp30
a((g15
I33
tp31
g17
tp32
a((g15
I6
tp33
g17
tp34
a((g26
I22
tp35
S'noise'
p36
tp37
a((g26
I2
tp38
g17
tp39
a((g15
I35
tp40
g9
tp41
a((S'uspolM11'
p42
I59
tp43
g9
tp44
a((g23
I3
tp45
S'theme_mix_noise'
p46
tp47
a((g42
I69
tp48
g6
tp49
a((g4
I79
tp50
g6
tp51
a((g42
I13
tp52
g6
tp53
a((g15
I41
tp54
g6
tp55
a((g26
I35
tp56
g9
tp57
a((g42
I96
tp58
g9
tp59
a((g4
I59
tp60
g6
tp61
a((g26
I21
tp62
g6
tp63
a((g42
I53
tp64
g36
tp65
a((g42
I30
tp66
g6
tp67
a((g26
I26
tp68
g6
tp69
a((g42
I93
tp70
g17
tp71
a((g42
I46
tp72
g6
tp73
a((g4
I97
tp74
g6
tp75
a((g15
I28
tp76
g6
tp77
a((g42
I29
tp78
g17
tp79
a((g42
I82
tp80
g6
tp81
a((g26
I40
tp82
g9
tp83
a((g4
I68
tp84
g6
tp85
a((g23
I35
tp86
g6
tp87
a((g26
I44
tp88
g9
tp89
a((g26
I47
tp90
g6
tp91
a((g23
I19
tp92
g9
tp93
a((g26
I34
tp94
g6
tp95
a((g42
I98
tp96
g6
tp97
a((g42
I22
tp98
g6
tp99
a((g42
I54
tp100
g6
tp101
a((g4
I76
tp102
g6
tp103
a((g15
I24
tp104
g6
tp105
a((g15
I7
tp106
g6
tp107
a((g42
I26
tp108
g36
tp109
a((g23
I47
tp110
g6
tp111
a((g26
I19
tp112
g17
tp113
a((g4
I21
tp114
g6
tp115
a((g26
I7
tp116
g36
tp117
a((g4
I89
tp118
g6
tp119
a((g23
I11
tp120
g6
tp121
a((g4
I5
tp122
g36
tp123
a((g4
I77
tp124
g6
tp125
a((g42
I1
tp126
g6
tp127
a((g4
I53
tp128
g9
tp129
a((g4
I24
tp130
g6
tp131
a((g4
I37
tp132
g6
tp133
a((g4
I75
tp134
g6
tp135
a((g4
I95
tp136
g9
tp137
a((g42
I36
tp138
g17
tp139
a((g4
I65
tp140
g36
tp141
a((g42
I84
tp142
g6
tp143
a((g26
I49
tp144
g6
tp145
a((g4
I43
tp146
g9
tp147
a((g23
I40
tp148
g6
tp149
a((g15
I31
tp150
g17
tp151
a((g4
I60
tp152
g6
tp153
a((g4
I23
tp154
g17
tp155
a((g42
I16
tp156
g6
tp157
a((g26
I15
tp158
g17
tp159
a((g26
I43
tp160
g9
tp161
a((g15
I19
tp162
g6
tp163
a((g23
I34
tp164
g9
tp165
a((g15
I29
tp166
g6
tp167
a((g42
I52
tp168
g6
tp169
a((g42
I47
tp170
g6
tp171
a((g23
I5
tp172
g36
tp173
a((g26
I33
tp174
g9
tp175
a((g15
I18
tp176
g6
tp177
a((g23
I18
tp178
g36
tp179
a((g4
I42
tp180
g6
tp181
a((g4
I38
tp182
g6
tp183
a((g4
I32
tp184
g9
tp185
a((g42
I17
tp186
g9
tp187
a((g42
I55
tp188
g6
tp189
a((g4
I49
tp190
g6
tp191
a((g23
I10
tp192
g36
tp193
a((g23
I9
tp194
g6
tp195
a((g4
I13
tp196
g6
tp197
a((g4
I26
tp198
g9
tp199
a((g26
I16
tp200
g9
tp201
a((g4
I78
tp202
g36
tp203
a((g42
I32
tp204
g6
tp205
a((g42
I3
tp206
g17
tp207
a((g15
I49
tp208
g6
tp209
a((g4
I28
tp210
g36
tp211
a((g42
I40
tp212
g36
tp213
a((g42
I0
tp214
g6
tp215
a((g42
I97
tp216
g36
tp217
a((g23
I30
tp218
g46
tp219
a((g4
I84
tp220
g36
tp221
a((g15
I9
tp222
g46
tp223
a((g4
I64
tp224
g6
tp225
a((g15
I43
tp226
g46
tp227
a((g4
I48
tp228
g9
tp229
a((g26
I6
tp230
g9
tp231
a((g4
I17
tp232
g6
tp233
a((g4
I86
tp234
g6
tp235
a((g26
I31
tp236
g6
tp237
a((g4
I88
tp238
g9
tp239
a((g42
I79
tp240
g17
tp241
a((g15
I10
tp242
g17
tp243
a((g15
I12
tp244
g6
tp245
a((g23
I41
tp246
g17
tp247
a((g4
I2
tp248
g17
tp249
a((g26
I3
tp250
g6
tp251
a((g26
I14
tp252
g6
tp253
atp254
Rp255
(dp256
S'id'
p257
S'dev_topic_split_[devSize=120]_[seed=78298]'
p258
sbg0
(g1
g2
(lp259
((g4
I72
tp260
g6
tp261
a((g23
I33
tp262
g9
tp263
a((g42
I4
tp264
g36
tp265
a((g42
I60
tp266
g36
tp267
a((g26
I25
tp268
g17
tp269
a((g23
I22
tp270
g6
tp271
a((g4
I67
tp272
g6
tp273
a((g42
I70
tp274
g6
tp275
a((g15
I32
tp276
g17
tp277
a((g15
I30
tp278
g6
tp279
a((g15
I5
tp280
g17
tp281
a((g4
I83
tp282
g6
tp283
a((g42
I85
tp284
g6
tp285
a((g15
I46
tp286
g17
tp287
a((g23
I48
tp288
g36
tp289
a((g4
I15
tp290
g6
tp291
a((g42
I57
tp292
g6
tp293
a((g4
I20
tp294
g6
tp295
a((g4
I90
tp296
g6
tp297
a((g26
I48
tp298
g6
tp299
a((g42
I2
tp300
g6
tp301
a((g42
I18
tp302
g9
tp303
a((g42
I61
tp304
g36
tp305
a((g4
I61
tp306
g6
tp307
a((g26
I39
tp308
g9
tp309
a((g4
I41
tp310
g9
tp311
a((g4
I22
tp312
g6
tp313
a((g26
I20
tp314
g9
tp315
a((g4
I51
tp316
g6
tp317
a((g23
I12
tp318
g6
tp319
a((g15
I39
tp320
g6
tp321
a((g26
I32
tp322
g9
tp323
a((g15
I48
tp324
g17
tp325
a((g15
I1
tp326
g6
tp327
a((g4
I4
tp328
g6
tp329
a((g26
I41
tp330
g6
tp331
a((g4
I58
tp332
g6
tp333
a((g42
I11
tp334
g6
tp335
a((g23
I45
tp336
g9
tp337
a((g42
I87
tp338
g6
tp339
a((g4
I10
tp340
g6
tp341
a((g42
I91
tp342
g6
tp343
a((g4
I45
tp344
g6
tp345
a((g23
I21
tp346
g6
tp347
a((g42
I72
tp348
g6
tp349
a((g15
I38
tp350
g6
tp351
a((g15
I0
tp352
g6
tp353
a((g4
I55
tp354
g6
tp355
a((g42
I27
tp356
g6
tp357
a((g4
I1
tp358
g9
tp359
a((g4
I70
tp360
g36
tp361
a((g23
I44
tp362
g6
tp363
a((g23
I37
tp364
g6
tp365
a((g15
I36
tp366
g17
tp367
a((g42
I48
tp368
g17
tp369
a((g23
I28
tp370
g6
tp371
a((g42
I71
tp372
g36
tp373
a((g42
I67
tp374
g17
tp375
a((g23
I32
tp376
g6
tp377
a((g15
I8
tp378
g17
tp379
a((g23
I17
tp380
g6
tp381
a((g42
I21
tp382
g17
tp383
a((g42
I80
tp384
g9
tp385
a((g15
I21
tp386
g17
tp387
a((g23
I36
tp388
g17
tp389
a((g26
I12
tp390
g6
tp391
a((g15
I22
tp392
g6
tp393
a((g15
I13
tp394
g6
tp395
a((g42
I74
tp396
g36
tp397
a((g42
I99
tp398
g36
tp399
a((g4
I87
tp400
g36
tp401
a((g42
I15
tp402
g36
tp403
a((g23
I15
tp404
g6
tp405
a((g26
I18
tp406
g6
tp407
a((g4
I31
tp408
g6
tp409
a((g4
I18
tp410
g36
tp411
a((g15
I16
tp412
g9
tp413
a((g23
I6
tp414
g9
tp415
a((g4
I29
tp416
g9
tp417
a((g4
I27
tp418
g6
tp419
a((g42
I78
tp420
g9
tp421
a((g26
I28
tp422
g36
tp423
a((g23
I4
tp424
g6
tp425
a((g42
I73
tp426
g36
tp427
a((g42
I44
tp428
g9
tp429
a((g4
I73
tp430
g6
tp431
a((g23
I31
tp432
g6
tp433
a((g42
I34
tp434
g17
tp435
a((g15
I26
tp436
g6
tp437
a((g26
I5
tp438
g6
tp439
a((g23
I49
tp440
g6
tp441
a((g15
I4
tp442
g17
tp443
a((g15
I45
tp444
g36
tp445
a((g42
I92
tp446
g36
tp447
a((g4
I96
tp448
g6
tp449
a((g42
I88
tp450
g6
tp451
a((g42
I19
tp452
g6
tp453
a((g4
I57
tp454
g6
tp455
a((g23
I42
tp456
g17
tp457
a((g4
I11
tp458
g6
tp459
a((g23
I2
tp460
g36
tp461
a((g4
I3
tp462
g6
tp463
a((g4
I62
tp464
g6
tp465
a((g4
I82
tp466
g6
tp467
a((g26
I1
tp468
g6
tp469
a((g23
I16
tp470
g17
tp471
a((g42
I50
tp472
g6
tp473
a((g15
I11
tp474
g6
tp475
a((g4
I34
tp476
g9
tp477
a((g42
I81
tp478
g6
tp479
a((g4
I46
tp480
g9
tp481
a((g26
I11
tp482
g6
tp483
a((g42
I39
tp484
g17
tp485
a((g42
I49
tp486
g6
tp487
a((g4
I33
tp488
g36
tp489
a((g23
I8
tp490
g17
tp491
a((g15
I23
tp492
g17
tp493
a((g26
I30
tp494
g36
tp495
a((g4
I85
tp496
g6
tp497
a((g42
I64
tp498
g46
tp499
a((g42
I41
tp500
g6
tp501
a((g42
I94
tp502
g17
tp503
a((g26
I38
tp504
g9
tp505
a((g42
I66
tp506
g36
tp507
a((g23
I26
tp508
g9
tp509
a((g4
I9
tp510
g6
tp511
a((g15
I15
tp512
g9
tp513
a((g42
I28
tp514
g6
tp515
a((g4
I98
tp516
g6
tp517
a((g42
I6
tp518
g17
tp519
a((g4
I14
tp520
g6
tp521
a((g4
I39
tp522
g6
tp523
a((g23
I29
tp524
g9
tp525
a((g42
I95
tp526
g36
tp527
a((g26
I17
tp528
g9
tp529
a((g42
I86
tp530
g6
tp531
a((g4
I74
tp532
g9
tp533
a((g42
I37
tp534
g6
tp535
a((g15
I44
tp536
g36
tp537
a((g42
I35
tp538
g9
tp539
a((g26
I36
tp540
g9
tp541
a((g15
I2
tp542
g6
tp543
a((g42
I14
tp544
g6
tp545
a((g42
I7
tp546
g6
tp547
a((g42
I68
tp548
g46
tp549
a((g23
I46
tp550
g36
tp551
a((g26
I46
tp552
g9
tp553
a((g26
I45
tp554
g9
tp555
a((g4
I71
tp556
g36
tp557
a((g4
I8
tp558
g6
tp559
a((g4
I16
tp560
g6
tp561
a((g4
I93
tp562
g9
tp563
a((g26
I24
tp564
g6
tp565
a((g23
I14
tp566
g9
tp567
a((g15
I25
tp568
g6
tp569
a((g15
I47
tp570
g6
tp571
a((g42
I31
tp572
g6
tp573
a((g23
I25
tp574
g17
tp575
a((g42
I5
tp576
g17
tp577
a((g23
I39
tp578
g6
tp579
a((g42
I63
tp580
g6
tp581
a((g4
I30
tp582
g6
tp583
a((g42
I65
tp584
g6
tp585
a((g4
I19
tp586
g6
tp587
a((g4
I50
tp588
g6
tp589
a((g15
I40
tp590
g46
tp591
a((g26
I27
tp592
g6
tp593
a((g15
I14
tp594
g6
tp595
a((g42
I38
tp596
g6
tp597
a((g42
I89
tp598
g17
tp599
a((g4
I36
tp600
g6
tp601
a((g26
I4
tp602
g6
tp603
a((g42
I8
tp604
g17
tp605
a((g26
I0
tp606
g6
tp607
a((g4
I7
tp608
g9
tp609
a((g42
I62
tp610
g6
tp611
a((g23
I7
tp612
g46
tp613
a((g15
I3
tp614
g36
tp615
a((g4
I52
tp616
g6
tp617
a((g15
I27
tp618
g6
tp619
a((g4
I92
tp620
g6
tp621
a((g42
I25
tp622
g6
tp623
a((g26
I37
tp624
g9
tp625
a((g42
I51
tp626
g17
tp627
a((g4
I35
tp628
g6
tp629
a((g4
I6
tp630
g6
tp631
a((g4
I56
tp632
g9
tp633
a((g4
I81
tp634
g6
tp635
a((g42
I43
tp636
g17
tp637
a((g42
I23
tp638
g6
tp639
a((g4
I47
tp640
g9
tp641
a((g42
I83
tp642
g9
tp643
a((g4
I91
tp644
g6
tp645
a((g23
I0
tp646
g46
tp647
a((g42
I45
tp648
g6
tp649
a((g4
I0
tp650
g9
tp651
a((g42
I90
tp652
g6
tp653
a((g23
I13
tp654
g6
tp655
a((g23
I20
tp656
g9
tp657
a((g4
I94
tp658
g46
tp659
a((g42
I58
tp660
g6
tp661
a((g42
I24
tp662
g17
tp663
a((g23
I1
tp664
g46
tp665
a((g26
I42
tp666
g46
tp667
a((g26
I13
tp668
g46
tp669
a((g23
I24
tp670
g6
tp671
a((g42
I10
tp672
g17
tp673
a((g23
I23
tp674
g6
tp675
a((g26
I9
tp676
g6
tp677
a((g4
I69
tp678
g6
tp679
a((g42
I20
tp680
g9
tp681
a((g42
I75
tp682
g9
tp683
a((g42
I76
tp684
g9
tp685
a((g26
I29
tp686
g9
tp687
a((g26
I23
tp688
g17
tp689
a((g23
I27
tp690
g17
tp691
a((g42
I12
tp692
g17
tp693
a((g26
I8
tp694
g6
tp695
a((g42
I42
tp696
g17
tp697
a((g4
I80
tp698
g6
tp699
a((g4
I40
tp700
g9
tp701
a((g4
I99
tp702
g6
tp703
a((g4
I44
tp704
g36
tp705
a((g42
I56
tp706
g17
tp707
a((g15
I17
tp708
g6
tp709
a((g42
I77
tp710
g6
tp711
a((g42
I9
tp712
g36
tp713
a((g23
I38
tp714
g36
tp715
a((g15
I20
tp716
g6
tp717
a((g42
I33
tp718
g6
tp719
atp720
Rp721
(dp722
g257
S'test_topic_split_[devSize=120]_[seed=78298]'
p723
sbtp724
.