(ccopy_reg
_reconstructor
p0
(cdoc_topic_coh.evaluations.experiment
IdList
p1
c__builtin__
list
p2
(lp3
((S'uspolM10'
p4
I53
tp5
S'theme_mix'
p6
tp7
a((g4
I62
tp8
S'theme'
p9
tp10
a((g4
I86
tp11
g9
tp12
a((g4
I74
tp13
g6
tp14
a((S'uspolM2'
p15
I31
tp16
g9
tp17
a((g15
I11
tp18
g9
tp19
a((g4
I21
tp20
g9
tp21
a((g4
I75
tp22
g9
tp23
a((S'uspolM11'
p24
I6
tp25
S'theme_noise'
p26
tp27
a((g4
I10
tp28
g9
tp29
a((S'uspolM0'
p30
I27
tp31
g26
tp32
a((g30
I17
tp33
g9
tp34
a((g24
I58
tp35
g9
tp36
a((g30
I35
tp37
g9
tp38
a((S'uspolM1'
p39
I47
tp40
g9
tp41
a((g30
I11
tp42
g9
tp43
a((g39
I39
tp44
g9
tp45
a((g4
I52
tp46
g9
tp47
a((g24
I71
tp48
S'noise'
p49
tp50
a((g24
I51
tp51
g26
tp52
a((g4
I13
tp53
g9
tp54
a((g30
I22
tp55
g9
tp56
a((g24
I34
tp57
g26
tp58
a((g4
I48
tp59
g6
tp60
a((g15
I26
tp61
g9
tp62
a((g24
I4
tp63
g49
tp64
a((g30
I28
tp65
g9
tp66
a((g4
I29
tp67
g6
tp68
a((g4
I96
tp69
g9
tp70
a((g30
I5
tp71
g49
tp72
a((g24
I19
tp73
g9
tp74
a((g39
I31
tp75
g26
tp76
a((g15
I20
tp77
g6
tp78
a((g24
I46
tp79
g9
tp80
a((g30
I9
tp81
g9
tp82
a((g24
I92
tp83
g49
tp84
a((g15
I47
tp85
g9
tp86
a((g24
I87
tp87
g9
tp88
a((g15
I0
tp89
g9
tp90
a((g24
I47
tp91
g9
tp92
a((g39
I42
tp93
g26
tp94
a((g24
I36
tp95
g26
tp96
a((g15
I49
tp97
g9
tp98
a((g39
I23
tp99
g26
tp100
a((g24
I68
tp101
S'theme_mix_noise'
p102
tp103
a((g39
I38
tp104
g9
tp105
a((g39
I10
tp106
g26
tp107
a((g30
I18
tp108
g49
tp109
a((g24
I31
tp110
g9
tp111
a((g30
I2
tp112
g49
tp113
a((g4
I49
tp114
g9
tp115
a((g30
I36
tp116
g26
tp117
a((g30
I31
tp118
g9
tp119
a((g4
I12
tp120
g9
tp121
a((g15
I46
tp122
g6
tp123
a((g15
I45
tp124
g6
tp125
a((g4
I8
tp126
g9
tp127
a((g30
I20
tp128
g6
tp129
a((g30
I14
tp130
g6
tp131
a((g4
I85
tp132
g9
tp133
a((g15
I37
tp134
g6
tp135
a((g4
I37
tp136
g9
tp137
a((g24
I15
tp138
g49
tp139
a((g39
I24
tp140
g9
tp141
a((g24
I26
tp142
g49
tp143
a((g15
I25
tp144
g26
tp145
a((g4
I79
tp146
g9
tp147
a((g4
I18
tp148
g49
tp149
a((g24
I78
tp150
g6
tp151
a((g39
I43
tp152
g102
tp153
a((g4
I72
tp154
g9
tp155
a((g30
I33
tp156
g6
tp157
a((g4
I39
tp158
g9
tp159
a((g30
I16
tp160
g26
tp161
a((g30
I39
tp162
g9
tp163
a((g39
I41
tp164
g9
tp165
a((g4
I71
tp166
g49
tp167
a((g4
I66
tp168
g6
tp169
a((g39
I40
tp170
g102
tp171
a((g4
I77
tp172
g9
tp173
a((g39
I30
tp174
g9
tp175
a((g15
I12
tp176
g9
tp177
a((g4
I58
tp178
g9
tp179
a((g4
I24
tp180
g9
tp181
a((g24
I21
tp182
g26
tp183
a((g24
I57
tp184
g9
tp185
a((g15
I30
tp186
g49
tp187
a((g15
I42
tp188
g102
tp189
a((g4
I35
tp190
g9
tp191
a((g39
I4
tp192
g26
tp193
a((g4
I60
tp194
g9
tp195
a((g15
I6
tp196
g6
tp197
a((g4
I50
tp198
g9
tp199
a((g39
I45
tp200
g49
tp201
a((g24
I8
tp202
g26
tp203
a((g15
I19
tp204
g26
tp205
a((g15
I1
tp206
g9
tp207
a((g4
I46
tp208
g6
tp209
a((g39
I29
tp210
g9
tp211
a((g24
I63
tp212
g9
tp213
a((g39
I26
tp214
g9
tp215
a((g4
I47
tp216
g6
tp217
a((g24
I94
tp218
g26
tp219
a((g30
I12
tp220
g9
tp221
a((g4
I55
tp222
g9
tp223
a((g4
I34
tp224
g6
tp225
a((g4
I43
tp226
g6
tp227
a((g30
I47
tp228
g9
tp229
a((g39
I13
tp230
g9
tp231
a((g4
I28
tp232
g49
tp233
a((g4
I38
tp234
g9
tp235
a((g39
I32
tp236
g26
tp237
a((g39
I22
tp238
g9
tp239
a((g4
I84
tp240
g49
tp241
a((g4
I90
tp242
g9
tp243
a((g30
I24
tp244
g9
tp245
a((g24
I96
tp246
g6
tp247
a((g4
I95
tp248
g6
tp249
a((g15
I33
tp250
g6
tp251
a((g24
I62
tp252
g9
tp253
atp254
Rp255
(dp256
S'id'
p257
S'dev_topic_split_[devSize=120]_[seed=9984]'
p258
sbg0
(g1
g2
(lp259
((g39
I6
tp260
g26
tp261
a((g24
I49
tp262
g9
tp263
a((g4
I68
tp264
g9
tp265
a((g24
I44
tp266
g6
tp267
a((g39
I0
tp268
g9
tp269
a((g4
I70
tp270
g49
tp271
a((g24
I38
tp272
g9
tp273
a((g4
I92
tp274
g9
tp275
a((g24
I54
tp276
g9
tp277
a((g30
I48
tp278
g49
tp279
a((g4
I4
tp280
g9
tp281
a((g4
I20
tp282
g9
tp283
a((g24
I90
tp284
g9
tp285
a((g30
I34
tp286
g6
tp287
a((g24
I42
tp288
g26
tp289
a((g24
I97
tp290
g49
tp291
a((g39
I21
tp292
g26
tp293
a((g4
I91
tp294
g9
tp295
a((g4
I40
tp296
g6
tp297
a((g24
I20
tp298
g6
tp299
a((g24
I76
tp300
g6
tp301
a((g24
I70
tp302
g9
tp303
a((g24
I22
tp304
g9
tp305
a((g30
I45
tp306
g6
tp307
a((g4
I59
tp308
g9
tp309
a((g30
I40
tp310
g9
tp311
a((g30
I38
tp312
g49
tp313
a((g4
I2
tp314
g26
tp315
a((g24
I93
tp316
g26
tp317
a((g39
I15
tp318
g6
tp319
a((g4
I9
tp320
g9
tp321
a((g30
I4
tp322
g9
tp323
a((g4
I94
tp324
g102
tp325
a((g24
I82
tp326
g9
tp327
a((g30
I43
tp328
g9
tp329
a((g24
I24
tp330
g26
tp331
a((g4
I51
tp332
g9
tp333
a((g24
I72
tp334
g9
tp335
a((g4
I42
tp336
g9
tp337
a((g15
I9
tp338
g9
tp339
a((g24
I73
tp340
g49
tp341
a((g24
I16
tp342
g9
tp343
a((g30
I30
tp344
g102
tp345
a((g24
I65
tp346
g9
tp347
a((g30
I44
tp348
g9
tp349
a((g24
I23
tp350
g9
tp351
a((g30
I3
tp352
g102
tp353
a((g24
I39
tp354
g26
tp355
a((g24
I80
tp356
g6
tp357
a((g30
I41
tp358
g26
tp359
a((g4
I11
tp360
g9
tp361
a((g4
I69
tp362
g9
tp363
a((g39
I33
tp364
g26
tp365
a((g24
I56
tp366
g26
tp367
a((g15
I22
tp368
g49
tp369
a((g24
I5
tp370
g26
tp371
a((g15
I27
tp372
g9
tp373
a((g15
I17
tp374
g6
tp375
a((g30
I23
tp376
g9
tp377
a((g39
I20
tp378
g9
tp379
a((g39
I14
tp380
g9
tp381
a((g24
I18
tp382
g6
tp383
a((g4
I14
tp384
g9
tp385
a((g15
I38
tp386
g6
tp387
a((g30
I19
tp388
g6
tp389
a((g30
I15
tp390
g9
tp391
a((g39
I8
tp392
g26
tp393
a((g24
I25
tp394
g9
tp395
a((g15
I32
tp396
g6
tp397
a((g24
I2
tp398
g9
tp399
a((g30
I25
tp400
g26
tp401
a((g24
I45
tp402
g9
tp403
a((g24
I69
tp404
g9
tp405
a((g24
I12
tp406
g26
tp407
a((g24
I89
tp408
g26
tp409
a((g4
I67
tp410
g9
tp411
a((g24
I64
tp412
g102
tp413
a((g30
I0
tp414
g102
tp415
a((g24
I91
tp416
g9
tp417
a((g15
I41
tp418
g9
tp419
a((g4
I25
tp420
g9
tp421
a((g4
I31
tp422
g9
tp423
a((g4
I1
tp424
g6
tp425
a((g15
I28
tp426
g49
tp427
a((g4
I78
tp428
g49
tp429
a((g30
I32
tp430
g9
tp431
a((g24
I61
tp432
g49
tp433
a((g4
I99
tp434
g9
tp435
a((g4
I98
tp436
g9
tp437
a((g15
I13
tp438
g102
tp439
a((g24
I43
tp440
g26
tp441
a((g24
I67
tp442
g26
tp443
a((g4
I0
tp444
g6
tp445
a((g30
I42
tp446
g26
tp447
a((g30
I13
tp448
g9
tp449
a((g30
I26
tp450
g6
tp451
a((g39
I28
tp452
g9
tp453
a((g39
I25
tp454
g9
tp455
a((g24
I27
tp456
g9
tp457
a((g39
I17
tp458
g9
tp459
a((g4
I65
tp460
g49
tp461
a((g4
I93
tp462
g6
tp463
a((g39
I49
tp464
g9
tp465
a((g24
I40
tp466
g49
tp467
a((g30
I10
tp468
g49
tp469
a((g24
I88
tp470
g9
tp471
a((g24
I1
tp472
g9
tp473
a((g39
I35
tp474
g6
tp475
a((g24
I99
tp476
g49
tp477
a((g24
I33
tp478
g9
tp479
a((g24
I59
tp480
g6
tp481
a((g15
I15
tp482
g26
tp483
a((g15
I23
tp484
g26
tp485
a((g24
I7
tp486
g9
tp487
a((g15
I24
tp488
g9
tp489
a((g30
I1
tp490
g102
tp491
a((g4
I7
tp492
g6
tp493
a((g24
I98
tp494
g9
tp495
a((g24
I13
tp496
g9
tp497
a((g24
I52
tp498
g9
tp499
a((g4
I61
tp500
g9
tp501
a((g39
I1
tp502
g9
tp503
a((g30
I37
tp504
g9
tp505
a((g4
I80
tp506
g9
tp507
a((g24
I11
tp508
g9
tp509
a((g24
I37
tp510
g9
tp511
a((g15
I36
tp512
g6
tp513
a((g24
I17
tp514
g6
tp515
a((g4
I82
tp516
g9
tp517
a((g24
I83
tp518
g6
tp519
a((g24
I95
tp520
g49
tp521
a((g30
I46
tp522
g49
tp523
a((g24
I53
tp524
g49
tp525
a((g15
I18
tp526
g9
tp527
a((g4
I22
tp528
g9
tp529
a((g15
I4
tp530
g9
tp531
a((g4
I76
tp532
g9
tp533
a((g4
I19
tp534
g9
tp535
a((g39
I18
tp536
g9
tp537
a((g24
I84
tp538
g9
tp539
a((g30
I49
tp540
g9
tp541
a((g4
I56
tp542
g6
tp543
a((g24
I79
tp544
g26
tp545
a((g4
I36
tp546
g9
tp547
a((g15
I8
tp548
g9
tp549
a((g24
I60
tp550
g49
tp551
a((g4
I54
tp552
g9
tp553
a((g4
I5
tp554
g49
tp555
a((g4
I41
tp556
g6
tp557
a((g15
I39
tp558
g6
tp559
a((g15
I3
tp560
g9
tp561
a((g4
I6
tp562
g9
tp563
a((g24
I55
tp564
g9
tp565
a((g39
I11
tp566
g9
tp567
a((g24
I10
tp568
g26
tp569
a((g15
I21
tp570
g9
tp571
a((g30
I21
tp572
g9
tp573
a((g15
I5
tp574
g9
tp575
a((g4
I88
tp576
g6
tp577
a((g24
I74
tp578
g49
tp579
a((g39
I37
tp580
g26
tp581
a((g15
I40
tp582
g6
tp583
a((g15
I16
tp584
g6
tp585
a((g39
I2
tp586
g9
tp587
a((g4
I16
tp588
g9
tp589
a((g4
I64
tp590
g9
tp591
a((g39
I34
tp592
g26
tp593
a((g4
I26
tp594
g6
tp595
a((g30
I8
tp596
g26
tp597
a((g4
I83
tp598
g9
tp599
a((g15
I43
tp600
g6
tp601
a((g15
I14
tp602
g9
tp603
a((g4
I87
tp604
g49
tp605
a((g4
I73
tp606
g9
tp607
a((g39
I27
tp608
g9
tp609
a((g24
I48
tp610
g26
tp611
a((g4
I45
tp612
g9
tp613
a((g24
I28
tp614
g9
tp615
a((g24
I29
tp616
g26
tp617
a((g4
I89
tp618
g9
tp619
a((g30
I7
tp620
g102
tp621
a((g4
I32
tp622
g6
tp623
a((g39
I36
tp624
g26
tp625
a((g15
I48
tp626
g9
tp627
a((g4
I23
tp628
g26
tp629
a((g39
I3
tp630
g49
tp631
a((g4
I97
tp632
g9
tp633
a((g24
I14
tp634
g9
tp635
a((g39
I5
tp636
g26
tp637
a((g24
I41
tp638
g9
tp639
a((g39
I44
tp640
g49
tp641
a((g24
I86
tp642
g9
tp643
a((g39
I12
tp644
g9
tp645
a((g39
I9
tp646
g102
tp647
a((g24
I30
tp648
g9
tp649
a((g4
I15
tp650
g9
tp651
a((g4
I44
tp652
g49
tp653
a((g24
I85
tp654
g9
tp655
a((g24
I9
tp656
g49
tp657
a((g4
I17
tp658
g9
tp659
a((g15
I35
tp660
g6
tp661
a((g24
I81
tp662
g9
tp663
a((g24
I66
tp664
g49
tp665
a((g15
I29
tp666
g6
tp667
a((g24
I75
tp668
g6
tp669
a((g4
I33
tp670
g49
tp671
a((g4
I27
tp672
g9
tp673
a((g4
I3
tp674
g9
tp675
a((g15
I34
tp676
g9
tp677
a((g24
I0
tp678
g9
tp679
a((g15
I10
tp680
g9
tp681
a((g30
I6
tp682
g6
tp683
a((g4
I81
tp684
g9
tp685
a((g24
I50
tp686
g9
tp687
a((g39
I7
tp688
g9
tp689
a((g15
I2
tp690
g26
tp691
a((g4
I30
tp692
g9
tp693
a((g24
I32
tp694
g9
tp695
a((g39
I16
tp696
g6
tp697
a((g39
I46
tp698
g26
tp699
a((g15
I7
tp700
g49
tp701
a((g15
I44
tp702
g6
tp703
a((g24
I77
tp704
g9
tp705
a((g24
I3
tp706
g26
tp707
a((g4
I57
tp708
g9
tp709
a((g39
I48
tp710
g26
tp711
a((g24
I35
tp712
g6
tp713
a((g4
I63
tp714
g9
tp715
a((g30
I29
tp716
g6
tp717
a((g39
I19
tp718
g9
tp719
atp720
Rp721
(dp722
g257
S'test_topic_split_[devSize=120]_[seed=9984]'
p723
sbtp724
.