ccopy_reg
_reconstructor
p1
(cpytopia.resource.corpus_tfidf.CorpusTfidfIndex
CorpusTfidfIndex
p2
c__builtin__
object
p3
NtRp4
(S'CorpusTfidfIndex'
p5
(lp6
S'corpus'
p7
aS'dictionary'
p8
aS'text2tokens'
p9
a(dp10
g7
S'us_politics'
p11
sg9
S'RsssuckerTxt2Tokens'
p12
sg8
S'us_politics_dict'
p13
sNtb.