ccopy_reg
_reconstructor
p1
(cpytopia.topic_model.ArtifTopicModel
ArtifTopicModel
p2
c__builtin__
object
p3
NtRp4
(S'ArtifTopicModel'
p5
(lp6
S'coreMethods'
p7
aS'corpus'
p8
aS'dictionary'
p9
aS'text2tokens'
p10
a(dp11
g8
S'us_politics'
p12
sg10
S'RsssuckerTxt2Tokens'
p13
sg9
S'us_politics_dict'
p14
sg7
(lp15
S'topicIds'
p16
aS'numTopics'
p17
aS'topic'
p18
aS'topicVector'
p19
asS'gtar_themes_model_old'
p20
tb.