ccopy_reg
_reconstructor
p1
(cpyldazen.model.LdaGibbsTopicModel
LdaGibbsTopicModel
p2
c__builtin__
object
p3
NtRp4
((S'LdaGibbsTopicModel'
p5
(lp6
S'corpus'
p7
aS'dictionary'
p8
aS'text2tokens'
p9
aS'T'
aS'alpha'
p10
aS'gibbsIter'
p11
aS'rseed'
p12
aS'idLabel'
p13
aS'beta'
p14
a(dp15
g11
I10
sg13
S'phenoLdaDoctopic'
p16
sg8
S'pheno_dict1'
p17
sg9
S'whitespace_tokenizer'
p18
sg12
I88911
sg14
F0.01
sS'T'
I30
sg10
F0.352112676056338
sg7
S'pheno_corpus1'
p19
sNtI112
tb.