ccopy_reg
_reconstructor
p1
(cpytopia.topic_model.ArtifTopicModel
ArtifTopicModel
p2
c__builtin__
object
p3
NtRp4
(S'ArtifTopicModel'
p5
(lp6
S'coreMethods'
p7
aS'corpus'
p8
aS'dictionary'
p9
aS'text2tokens'
p10
a(dp11
g8
Nsg10
Nsg9
S'pheno_dict1'
p12
sg7
(lp13
S'topicIds'
p14
aS'numTopics'
p15
aS'topic'
p16
aS'topicVector'
p17
asS'pheno_reftopics'
p18
tb.