ccopy_reg
_reconstructor
p1
(cpytopia.resource.bow_corpus.bow_corpus
BowCorpus
p2
c__builtin__
object
p3
NtRp4
(S'BowCorpus'
p5
(lp6
S'corpus'
p7
aS'txt2tok'
p8
aS'dict'
p9
a(dp10
g7
S'pheno_corpus1'
p11
sg9
S'pheno_dict1'
p12
sg8
S'whitespace_tokenizer'
p13
sNtb.