ccopy_reg
_reconstructor
p0
(cdoc_topic_coh.evaluations.experiment
IdList
p1
c__builtin__
list
p2
(lp3
((S'uspolM0'
p4
I0
tp5
S'theme_mix_noise'
p6
tp7
a((g4
I1
tp8
g6
tp9
a((g4
I2
tp10
S'noise'
p11
tp12
a((g4
I3
tp13
g6
tp14
a((g4
I4
tp15
S'theme'
p16
tp17
a((g4
I5
tp18
g11
tp19
a((g4
I6
tp20
S'theme_mix'
p21
tp22
a((g4
I7
tp23
g6
tp24
a((g4
I8
tp25
S'theme_noise'
p26
tp27
a((g4
I9
tp28
g16
tp29
a((g4
I10
tp30
g11
tp31
a((g4
I11
tp32
g16
tp33
a((g4
I12
tp34
g16
tp35
a((g4
I13
tp36
g16
tp37
a((g4
I14
tp38
g21
tp39
a((g4
I15
tp40
g16
tp41
a((g4
I16
tp42
g26
tp43
a((g4
I17
tp44
g16
tp45
a((g4
I18
tp46
g11
tp47
a((g4
I19
tp48
g21
tp49
a((g4
I20
tp50
g21
tp51
a((g4
I21
tp52
g16
tp53
a((g4
I22
tp54
g16
tp55
a((g4
I23
tp56
g16
tp57
a((g4
I24
tp58
g16
tp59
a((g4
I25
tp60
g26
tp61
a((g4
I26
tp62
g21
tp63
a((g4
I27
tp64
g26
tp65
a((g4
I28
tp66
g16
tp67
a((g4
I29
tp68
g21
tp69
a((g4
I30
tp70
g6
tp71
a((g4
I31
tp72
g16
tp73
a((g4
I32
tp74
g16
tp75
a((g4
I33
tp76
g21
tp77
a((g4
I34
tp78
g21
tp79
a((g4
I35
tp80
g16
tp81
a((g4
I36
tp82
g26
tp83
a((g4
I37
tp84
g16
tp85
a((g4
I38
tp86
g11
tp87
a((g4
I39
tp88
g16
tp89
a((g4
I40
tp90
g16
tp91
a((g4
I41
tp92
g26
tp93
a((g4
I42
tp94
g26
tp95
a((g4
I43
tp96
g16
tp97
a((g4
I44
tp98
g16
tp99
a((g4
I45
tp100
g21
tp101
a((g4
I46
tp102
g11
tp103
a((g4
I47
tp104
g16
tp105
a((g4
I48
tp106
g11
tp107
a((g4
I49
tp108
g16
tp109
a((S'uspolM1'
p110
I0
tp111
g16
tp112
a((g110
I1
tp113
g16
tp114
a((g110
I2
tp115
g16
tp116
a((g110
I3
tp117
g11
tp118
a((g110
I4
tp119
g26
tp120
a((g110
I5
tp121
g26
tp122
a((g110
I6
tp123
g26
tp124
a((g110
I7
tp125
g16
tp126
a((g110
I8
tp127
g26
tp128
a((g110
I9
tp129
g6
tp130
a((g110
I10
tp131
g26
tp132
a((g110
I11
tp133
g16
tp134
a((g110
I12
tp135
g16
tp136
a((g110
I13
tp137
g16
tp138
a((g110
I14
tp139
g16
tp140
a((g110
I15
tp141
g21
tp142
a((g110
I16
tp143
g21
tp144
a((g110
I17
tp145
g16
tp146
a((g110
I18
tp147
g16
tp148
a((g110
I19
tp149
g16
tp150
a((g110
I20
tp151
g16
tp152
a((g110
I21
tp153
g26
tp154
a((g110
I22
tp155
g16
tp156
a((g110
I23
tp157
g26
tp158
a((g110
I24
tp159
g16
tp160
a((g110
I25
tp161
g16
tp162
a((g110
I26
tp163
g16
tp164
a((g110
I27
tp165
g16
tp166
a((g110
I28
tp167
g16
tp168
a((g110
I29
tp169
g16
tp170
a((g110
I30
tp171
g16
tp172
a((g110
I31
tp173
g26
tp174
a((g110
I32
tp175
g26
tp176
a((g110
I33
tp177
g26
tp178
a((g110
I34
tp179
g26
tp180
a((g110
I35
tp181
g21
tp182
a((g110
I36
tp183
g26
tp184
a((g110
I37
tp185
g26
tp186
a((g110
I38
tp187
g16
tp188
a((g110
I39
tp189
g16
tp190
a((g110
I40
tp191
g6
tp192
a((g110
I41
tp193
g16
tp194
a((g110
I42
tp195
g26
tp196
a((g110
I43
tp197
g6
tp198
a((g110
I44
tp199
g11
tp200
a((g110
I45
tp201
g11
tp202
a((g110
I46
tp203
g26
tp204
a((g110
I47
tp205
g16
tp206
a((g110
I48
tp207
g26
tp208
a((g110
I49
tp209
g16
tp210
a((S'uspolM2'
p211
I0
tp212
g16
tp213
a((g211
I1
tp214
g16
tp215
a((g211
I2
tp216
g26
tp217
a((g211
I3
tp218
g16
tp219
a((g211
I4
tp220
g16
tp221
a((g211
I5
tp222
g16
tp223
a((g211
I6
tp224
g21
tp225
a((g211
I7
tp226
g11
tp227
a((g211
I8
tp228
g16
tp229
a((g211
I9
tp230
g16
tp231
a((g211
I10
tp232
g16
tp233
a((g211
I11
tp234
g16
tp235
a((g211
I12
tp236
g16
tp237
a((g211
I13
tp238
g6
tp239
a((g211
I14
tp240
g16
tp241
a((g211
I15
tp242
g26
tp243
a((g211
I16
tp244
g21
tp245
a((g211
I17
tp246
g21
tp247
a((g211
I18
tp248
g16
tp249
a((g211
I19
tp250
g26
tp251
a((g211
I20
tp252
g21
tp253
a((g211
I21
tp254
g16
tp255
a((g211
I22
tp256
g11
tp257
a((g211
I23
tp258
g26
tp259
a((g211
I24
tp260
g16
tp261
a((g211
I25
tp262
g26
tp263
a((g211
I26
tp264
g16
tp265
a((g211
I27
tp266
g16
tp267
a((g211
I28
tp268
g11
tp269
a((g211
I29
tp270
g21
tp271
a((g211
I30
tp272
g11
tp273
a((g211
I31
tp274
g16
tp275
a((g211
I32
tp276
g21
tp277
a((g211
I33
tp278
g21
tp279
a((g211
I34
tp280
g16
tp281
a((g211
I35
tp282
g21
tp283
a((g211
I36
tp284
g21
tp285
a((g211
I37
tp286
g21
tp287
a((g211
I38
tp288
g21
tp289
a((g211
I39
tp290
g21
tp291
a((g211
I40
tp292
g21
tp293
a((g211
I41
tp294
g16
tp295
a((g211
I42
tp296
g6
tp297
a((g211
I43
tp298
g21
tp299
a((g211
I44
tp300
g21
tp301
a((g211
I45
tp302
g21
tp303
a((g211
I46
tp304
g21
tp305
a((g211
I47
tp306
g16
tp307
a((g211
I48
tp308
g16
tp309
a((g211
I49
tp310
g16
tp311
a((S'uspolM10'
p312
I0
tp313
g21
tp314
a((g312
I1
tp315
g21
tp316
a((g312
I2
tp317
g26
tp318
a((g312
I3
tp319
g16
tp320
a((g312
I4
tp321
g16
tp322
a((g312
I5
tp323
g11
tp324
a((g312
I6
tp325
g16
tp326
a((g312
I7
tp327
g21
tp328
a((g312
I8
tp329
g16
tp330
a((g312
I9
tp331
g16
tp332
a((g312
I10
tp333
g16
tp334
a((g312
I11
tp335
g16
tp336
a((g312
I12
tp337
g16
tp338
a((g312
I13
tp339
g16
tp340
a((g312
I14
tp341
g16
tp342
a((g312
I15
tp343
g16
tp344
a((g312
I16
tp345
g16
tp346
a((g312
I17
tp347
g16
tp348
a((g312
I18
tp349
g11
tp350
a((g312
I19
tp351
g16
tp352
a((g312
I20
tp353
g16
tp354
a((g312
I21
tp355
g16
tp356
a((g312
I22
tp357
g16
tp358
a((g312
I23
tp359
g26
tp360
a((g312
I24
tp361
g16
tp362
a((g312
I25
tp363
g16
tp364
a((g312
I26
tp365
g21
tp366
a((g312
I27
tp367
g16
tp368
a((g312
I28
tp369
g11
tp370
a((g312
I29
tp371
g21
tp372
a((g312
I30
tp373
g16
tp374
a((g312
I31
tp375
g16
tp376
a((g312
I32
tp377
g21
tp378
a((g312
I33
tp379
g11
tp380
a((g312
I34
tp381
g21
tp382
a((g312
I35
tp383
g16
tp384
a((g312
I36
tp385
g16
tp386
a((g312
I37
tp387
g16
tp388
a((g312
I38
tp389
g16
tp390
a((g312
I39
tp391
g16
tp392
a((g312
I40
tp393
g21
tp394
a((g312
I41
tp395
g21
tp396
a((g312
I42
tp397
g16
tp398
a((g312
I43
tp399
g21
tp400
a((g312
I44
tp401
g11
tp402
a((g312
I45
tp403
g16
tp404
a((g312
I46
tp405
g21
tp406
a((g312
I47
tp407
g21
tp408
a((g312
I48
tp409
g21
tp410
a((g312
I49
tp411
g16
tp412
a((g312
I50
tp413
g16
tp414
a((g312
I51
tp415
g16
tp416
a((g312
I52
tp417
g16
tp418
a((g312
I53
tp419
g21
tp420
a((g312
I54
tp421
g16
tp422
a((g312
I55
tp423
g16
tp424
a((g312
I56
tp425
g21
tp426
a((g312
I57
tp427
g16
tp428
a((g312
I58
tp429
g16
tp430
a((g312
I59
tp431
g16
tp432
a((g312
I60
tp433
g16
tp434
a((g312
I61
tp435
g16
tp436
a((g312
I62
tp437
g16
tp438
a((g312
I63
tp439
g16
tp440
a((g312
I64
tp441
g16
tp442
a((g312
I65
tp443
g11
tp444
a((g312
I66
tp445
g21
tp446
a((g312
I67
tp447
g16
tp448
a((g312
I68
tp449
g16
tp450
a((g312
I69
tp451
g16
tp452
a((g312
I70
tp453
g11
tp454
a((g312
I71
tp455
g11
tp456
a((g312
I72
tp457
g16
tp458
a((g312
I73
tp459
g16
tp460
a((g312
I74
tp461
g21
tp462
a((g312
I75
tp463
g16
tp464
a((g312
I76
tp465
g16
tp466
a((g312
I77
tp467
g16
tp468
a((g312
I78
tp469
g11
tp470
a((g312
I79
tp471
g16
tp472
a((g312
I80
tp473
g16
tp474
a((g312
I81
tp475
g16
tp476
a((g312
I82
tp477
g16
tp478
a((g312
I83
tp479
g16
tp480
a((g312
I84
tp481
g11
tp482
a((g312
I85
tp483
g16
tp484
a((g312
I86
tp485
g16
tp486
a((g312
I87
tp487
g11
tp488
a((g312
I88
tp489
g21
tp490
a((g312
I89
tp491
g16
tp492
a((g312
I90
tp493
g16
tp494
a((g312
I91
tp495
g16
tp496
a((g312
I92
tp497
g16
tp498
a((g312
I93
tp499
g21
tp500
a((g312
I94
tp501
g6
tp502
a((g312
I95
tp503
g21
tp504
a((g312
I96
tp505
g16
tp506
a((g312
I97
tp507
g16
tp508
a((g312
I98
tp509
g16
tp510
a((g312
I99
tp511
g16
tp512
a((S'uspolM11'
p513
I0
tp514
g16
tp515
a((g513
I1
tp516
g16
tp517
a((g513
I2
tp518
g16
tp519
a((g513
I3
tp520
g26
tp521
a((g513
I4
tp522
g11
tp523
a((g513
I5
tp524
g26
tp525
a((g513
I6
tp526
g26
tp527
a((g513
I7
tp528
g16
tp529
a((g513
I8
tp530
g26
tp531
a((g513
I9
tp532
g11
tp533
a((g513
I10
tp534
g26
tp535
a((g513
I11
tp536
g16
tp537
a((g513
I12
tp538
g26
tp539
a((g513
I13
tp540
g16
tp541
a((g513
I14
tp542
g16
tp543
a((g513
I15
tp544
g11
tp545
a((g513
I16
tp546
g16
tp547
a((g513
I17
tp548
g21
tp549
a((g513
I18
tp550
g21
tp551
a((g513
I19
tp552
g16
tp553
a((g513
I20
tp554
g21
tp555
a((g513
I21
tp556
g26
tp557
a((g513
I22
tp558
g16
tp559
a((g513
I23
tp560
g16
tp561
a((g513
I24
tp562
g26
tp563
a((g513
I25
tp564
g16
tp565
a((g513
I26
tp566
g11
tp567
a((g513
I27
tp568
g16
tp569
a((g513
I28
tp570
g16
tp571
a((g513
I29
tp572
g26
tp573
a((g513
I30
tp574
g16
tp575
a((g513
I31
tp576
g16
tp577
a((g513
I32
tp578
g16
tp579
a((g513
I33
tp580
g16
tp581
a((g513
I34
tp582
g26
tp583
a((g513
I35
tp584
g21
tp585
a((g513
I36
tp586
g26
tp587
a((g513
I37
tp588
g16
tp589
a((g513
I38
tp590
g16
tp591
a((g513
I39
tp592
g26
tp593
a((g513
I40
tp594
g11
tp595
a((g513
I41
tp596
g16
tp597
a((g513
I42
tp598
g26
tp599
a((g513
I43
tp600
g26
tp601
a((g513
I44
tp602
g21
tp603
a((g513
I45
tp604
g16
tp605
a((g513
I46
tp606
g16
tp607
a((g513
I47
tp608
g16
tp609
a((g513
I48
tp610
g26
tp611
a((g513
I49
tp612
g16
tp613
a((g513
I50
tp614
g16
tp615
a((g513
I51
tp616
g26
tp617
a((g513
I52
tp618
g16
tp619
a((g513
I53
tp620
g11
tp621
a((g513
I54
tp622
g16
tp623
a((g513
I55
tp624
g16
tp625
a((g513
I56
tp626
g26
tp627
a((g513
I57
tp628
g16
tp629
a((g513
I58
tp630
g16
tp631
a((g513
I59
tp632
g21
tp633
a((g513
I60
tp634
g11
tp635
a((g513
I61
tp636
g11
tp637
a((g513
I62
tp638
g16
tp639
a((g513
I63
tp640
g16
tp641
a((g513
I64
tp642
g6
tp643
a((g513
I65
tp644
g16
tp645
a((g513
I66
tp646
g11
tp647
a((g513
I67
tp648
g26
tp649
a((g513
I68
tp650
g6
tp651
a((g513
I69
tp652
g16
tp653
a((g513
I70
tp654
g16
tp655
a((g513
I71
tp656
g11
tp657
a((g513
I72
tp658
g16
tp659
a((g513
I73
tp660
g11
tp661
a((g513
I74
tp662
g11
tp663
a((g513
I75
tp664
g21
tp665
a((g513
I76
tp666
g21
tp667
a((g513
I77
tp668
g16
tp669
a((g513
I78
tp670
g21
tp671
a((g513
I79
tp672
g26
tp673
a((g513
I80
tp674
g21
tp675
a((g513
I81
tp676
g16
tp677
a((g513
I82
tp678
g16
tp679
a((g513
I83
tp680
g21
tp681
a((g513
I84
tp682
g16
tp683
a((g513
I85
tp684
g16
tp685
a((g513
I86
tp686
g16
tp687
a((g513
I87
tp688
g16
tp689
a((g513
I88
tp690
g16
tp691
a((g513
I89
tp692
g26
tp693
a((g513
I90
tp694
g16
tp695
a((g513
I91
tp696
g16
tp697
a((g513
I92
tp698
g11
tp699
a((g513
I93
tp700
g26
tp701
a((g513
I94
tp702
g26
tp703
a((g513
I95
tp704
g11
tp705
a((g513
I96
tp706
g21
tp707
a((g513
I97
tp708
g11
tp709
a((g513
I98
tp710
g16
tp711
a((g513
I99
tp712
g11
tp713
atp714
Rp715
(dp716
S'id'
p717
S'all_topics'
p718
sb.