ccopy_reg
_reconstructor
p1
(cpytopia.adapt.gensim.dictionary.GensimDictAdapter
GensimDictAdapter
p2
c__builtin__
object
p3
NtRp4
(S'GensimDictAdapter'
p5
(lp6
S'corpusId'
p7
aS'txt2tokId'
p8
aS'buildOpts'
p9
a(dp10
g9
g1
(cpytopia.adapt.gensim.dictionary.dict_build
GensimDictBuildOptions
p11
g3
NtRp12
(S'GensimDictBuildOptions'
p13
(lp14
S'docLowerLimit'
p15
aS'docUpperLimit'
p16
aS'words2keep'
p17
a(dp18
g17
I50000
sg16
Nsg15
NsNtbsg7
S'us_politics'
p19
sg8
S'alphanum_gtar_stopword_tokenizer'
p20
sNtb.