ccopy_reg
_reconstructor
p1
(cpytopia.topic_model.ArtifTopicModel
ArtifTopicModel
p2
c__builtin__
object
p3
NtRp4
(S'ArtifTopicModel'
p5
(lp6
S'coreMethods'
p7
aS'corpus'
p8
aS'dictionary'
p9
aS'text2tokens'
p10
a(dp11
g8
S'pheno_corpus1'
p12
sg10
S'whitespace_tokenizer'
p13
sg9
S'pheno_dict1'
p14
sg7
(lp15
S'topicIds'
p16
aS'numTopics'
p17
aS'topic'
p18
aS'topicVector'
p19
asS'pheno_reftopics_docs'
p20
tb.